target datalayout = "e-m:e-p270:32:32-p271:32:32-p272:64:64-i64:64-i128:128-f80:128-n8:16:32:64-S128"
target triple = "x86_64-unknown-linux-gnu"

%"class.QuantLib::FdmLinearOp" = type { ptr }
%"class.std::unique_ptr" = type { %"struct.std::__uniq_ptr_data" }
%"struct.std::__uniq_ptr_data" = type { %"class.std::__uniq_ptr_impl" }
%"class.std::__uniq_ptr_impl" = type { %"class.std::tuple" }
%"class.std::tuple" = type { %"struct.std::_Tuple_impl" }
%"struct.std::_Tuple_impl" = type { %"struct.std::_Head_base.1" }
%"struct.std::_Head_base.1" = type { ptr }
%"class.boost::detail::shared_count" = type { ptr }
%"class.QuantLib::Array" = type { %"class.std::unique_ptr", i64 }
%"class.QuantLib::FdmSquareRootFwdOp" = type { %"class.QuantLib::FdmLinearOpComposite", i64, double, double, double, i32, %"class.boost::shared_ptr", %"class.QuantLib::Array" }
%"class.QuantLib::FdmLinearOpComposite" = type { %"class.QuantLib::FdmLinearOp" }
%"class.boost::shared_ptr" = type { ptr, %"class.boost::detail::shared_count" }
%"class.std::vector.16" = type { %"struct.std::_Vector_base.17" }
%"struct.std::_Vector_base.17" = type { %"struct.std::_Vector_base<boost::numeric::ublas::compressed_matrix<double>, std::allocator<boost::numeric::ublas::compressed_matrix<double>>>::_Vector_impl" }
%"struct.std::_Vector_base<boost::numeric::ublas::compressed_matrix<double>, std::allocator<boost::numeric::ublas::compressed_matrix<double>>>::_Vector_impl" = type { %"struct.std::_Vector_base<boost::numeric::ublas::compressed_matrix<double>, std::allocator<boost::numeric::ublas::compressed_matrix<double>>>::_Vector_impl_data" }
%"struct.std::_Vector_base<boost::numeric::ublas::compressed_matrix<double>, std::allocator<boost::numeric::ublas::compressed_matrix<double>>>::_Vector_impl_data" = type { ptr, ptr, ptr }
%"class.boost::numeric::ublas::compressed_matrix" = type { i64, i64, i64, i64, i64, %"class.boost::numeric::ublas::unbounded_array", %"class.boost::numeric::ublas::unbounded_array", %"class.boost::numeric::ublas::unbounded_array.21" }
%"class.boost::numeric::ublas::unbounded_array" = type { [8 x i8], i64, ptr }
%"class.boost::numeric::ublas::unbounded_array.21" = type { [8 x i8], i64, ptr }
%"class.std::allocator.18" = type { i8 }

@.str.9 = private unnamed_addr constant [8 x i8] c"px != 0\00", align 1
@.str.10 = private unnamed_addr constant [102 x i8] c"generated/home/dtcxzyw/WorkSpace/SDK/vcpkg/installed/x64-linux/include/boost/smart_ptr/shared_ptr.hpp\00", align 1
@__PRETTY_FUNCTION__._ZNK5boost10shared_ptrIN8QuantLib21ModTripleBandLinearOpEEptEv = private unnamed_addr constant [159 x i8] c"typename boost::detail::sp_member_access<T>::type boost::shared_ptr<QuantLib::ModTripleBandLinearOp>::operator->() const [T = QuantLib::ModTripleBandLinearOp]\00", align 1

; Function Attrs: mustprogress nounwind uwtable
define linkonce_odr void @_ZNSt15__new_allocatorIN5boost7numeric5ublas17compressed_matrixIdNS2_15basic_row_majorImlEELm0ENS2_15unbounded_arrayImSaImEEENS6_IdSaIdEEEEEEC2Ev(ptr noundef nonnull align 1 dereferenceable(1) %this) unnamed_addr #9 comdat align 2 {
entry:
  %this.addr = alloca ptr, align 8
  store ptr %this, ptr %this.addr, align 8, !tbaa !3
  ret void
}

; Function Attrs: mustprogress nounwind uwtable
define linkonce_odr void @_ZNSt15__new_allocatorIN5boost7numeric5ublas17compressed_matrixIdNS2_15basic_row_majorImlEELm0ENS2_15unbounded_arrayImSaImEEENS6_IdSaIdEEEEEED2Ev(ptr noundef nonnull align 1 dereferenceable(1) %this) unnamed_addr #9 comdat align 2 {
entry:
  %this.addr = alloca ptr, align 8
  store ptr %this, ptr %this.addr, align 8, !tbaa !3
  ret void
}

; Function Attrs: mustprogress nounwind uwtable
define linkonce_odr void @_ZNSaIN5boost7numeric5ublas17compressed_matrixIdNS1_15basic_row_majorImlEELm0ENS1_15unbounded_arrayImSaImEEENS5_IdSaIdEEEEEEC2Ev(ptr noundef nonnull align 1 dereferenceable(1) %this) unnamed_addr #9 comdat align 2 {
entry:
  %this.addr = alloca ptr, align 8
  store ptr %this, ptr %this.addr, align 8, !tbaa !3
  %this1 = load ptr, ptr %this.addr, align 8
  call void @_ZNSt15__new_allocatorIN5boost7numeric5ublas17compressed_matrixIdNS2_15basic_row_majorImlEELm0ENS2_15unbounded_arrayImSaImEEENS6_IdSaIdEEEEEEC2Ev(ptr noundef nonnull align 1 dereferenceable(1) %this1) #3
  ret void
}

; Function Attrs: mustprogress uwtable
define linkonce_odr noundef ptr @_ZNK5boost10shared_ptrIN8QuantLib21ModTripleBandLinearOpEEptEv(ptr noundef nonnull align 8 dereferenceable(16) %this) #4 comdat align 2 {
entry:
  %this.addr = alloca ptr, align 8
  store ptr %this, ptr %this.addr, align 8, !tbaa !3
  %this1 = load ptr, ptr %this.addr, align 8
  %px = getelementptr inbounds nuw %"class.boost::shared_ptr", ptr %this1, i32 0, i32 0
  %0 = load ptr, ptr %px, align 8, !tbaa !51
  %cmp = icmp ne ptr %0, null
  %lnot = xor i1 %cmp, true
  %lnot2 = xor i1 %lnot, true
  %conv = zext i1 %lnot2 to i64
  %expval = call i64 @llvm.expect.i64(i64 %conv, i64 1)
  %tobool = icmp ne i64 %expval, 0
  br i1 %tobool, label %cond.true, label %cond.false

cond.true:                                        ; preds = %entry
  br label %cond.end

cond.false:                                       ; preds = %entry
  call void @_ZN5boost16assertion_failedEPKcS1_S1_l(ptr noundef @.str.9, ptr noundef @__PRETTY_FUNCTION__._ZNK5boost10shared_ptrIN8QuantLib21ModTripleBandLinearOpEEptEv, ptr noundef @.str.10, i64 noundef 784)
  br label %cond.end

cond.end:                                         ; preds = %cond.false, %cond.true
  %px3 = getelementptr inbounds nuw %"class.boost::shared_ptr", ptr %this1, i32 0, i32 0
  %1 = load ptr, ptr %px3, align 8, !tbaa !51
  ret ptr %1
}

; Function Attrs: mustprogress uwtable
define void @_ZNK8QuantLib18FdmSquareRootFwdOp14toMatrixDecompEv(ptr dead_on_unwind noalias writable sret(%"class.std::vector.16") align 8 %agg.result, ptr noundef nonnull align 8 dereferenceable(80) %this) unnamed_addr #4 align 2 personality ptr @__gxx_personality_v0 {
entry:
  %result.ptr = alloca ptr, align 8
  %this.addr = alloca ptr, align 8
  %ref.tmp = alloca %"class.boost::numeric::ublas::compressed_matrix", align 8
  %ref.tmp2 = alloca %"class.std::allocator.18", align 1
  %exn.slot = alloca ptr, align 8
  %ehselector.slot = alloca i32, align 4
  store ptr %agg.result, ptr %result.ptr, align 8
  store ptr %this, ptr %this.addr, align 8, !tbaa !3
  %this1 = load ptr, ptr %this.addr, align 8
  call void @llvm.lifetime.start.p0(i64 112, ptr %ref.tmp) #3
  %mapX_ = getelementptr inbounds nuw %"class.QuantLib::FdmSquareRootFwdOp", ptr %this1, i32 0, i32 6
  %call = call noundef ptr @_ZNK5boost10shared_ptrIN8QuantLib21ModTripleBandLinearOpEEptEv(ptr noundef nonnull align 8 dereferenceable(16) %mapX_)
  %vtable = load ptr, ptr %call, align 8, !tbaa !13
  %vfn = getelementptr inbounds ptr, ptr %vtable, i64 3
  %0 = load ptr, ptr %vfn, align 8
  call void %0(ptr dead_on_unwind writable sret(%"class.boost::numeric::ublas::compressed_matrix") align 8 %ref.tmp, ptr noundef nonnull align 8 dereferenceable(80) %call)
  call void @llvm.lifetime.start.p0(i64 1, ptr %ref.tmp2) #3
  call void @_ZNSaIN5boost7numeric5ublas17compressed_matrixIdNS1_15basic_row_majorImlEELm0ENS1_15unbounded_arrayImSaImEEENS5_IdSaIdEEEEEEC2Ev(ptr noundef nonnull align 1 dereferenceable(1) %ref.tmp2) #3
  invoke void @_ZNSt6vectorIN5boost7numeric5ublas17compressed_matrixIdNS2_15basic_row_majorImlEELm0ENS2_15unbounded_arrayImSaImEEENS6_IdSaIdEEEEESaISB_EEC2EmRKSB_RKSC_(ptr noundef nonnull align 8 dereferenceable(24) %agg.result, i64 noundef 1, ptr noundef nonnull align 8 dereferenceable(112) %ref.tmp, ptr noundef nonnull align 1 dereferenceable(1) %ref.tmp2)
          to label %invoke.cont unwind label %lpad

invoke.cont:                                      ; preds = %entry
  call void @_ZNSt15__new_allocatorIN5boost7numeric5ublas17compressed_matrixIdNS2_15basic_row_majorImlEELm0ENS2_15unbounded_arrayImSaImEEENS6_IdSaIdEEEEEED2Ev(ptr noundef nonnull align 1 dereferenceable(1) %ref.tmp2) #3
  call void @llvm.lifetime.end.p0(i64 1, ptr %ref.tmp2) #3
  call void @_ZN5boost7numeric5ublas17compressed_matrixIdNS1_15basic_row_majorImlEELm0ENS1_15unbounded_arrayImSaImEEENS5_IdSaIdEEEED2Ev(ptr noundef nonnull align 8 dereferenceable(112) %ref.tmp) #3
  call void @llvm.lifetime.end.p0(i64 112, ptr %ref.tmp) #3
  ret void

lpad:                                             ; preds = %entry
  %1 = landingpad { ptr, i32 }
          cleanup
  %2 = extractvalue { ptr, i32 } %1, 0
  store ptr %2, ptr %exn.slot, align 8
  %3 = extractvalue { ptr, i32 } %1, 1
  store i32 %3, ptr %ehselector.slot, align 4
  call void @_ZNSt15__new_allocatorIN5boost7numeric5ublas17compressed_matrixIdNS2_15basic_row_majorImlEELm0ENS2_15unbounded_arrayImSaImEEENS6_IdSaIdEEEEEED2Ev(ptr noundef nonnull align 1 dereferenceable(1) %ref.tmp2) #3
  call void @llvm.lifetime.end.p0(i64 1, ptr %ref.tmp2) #3
  call void @_ZN5boost7numeric5ublas17compressed_matrixIdNS1_15basic_row_majorImlEELm0ENS1_15unbounded_arrayImSaImEEENS5_IdSaIdEEEED2Ev(ptr noundef nonnull align 8 dereferenceable(112) %ref.tmp) #3
  call void @llvm.lifetime.end.p0(i64 112, ptr %ref.tmp) #3
  br label %eh.resume

eh.resume:                                        ; preds = %lpad
  %exn = load ptr, ptr %exn.slot, align 8
  %sel = load i32, ptr %ehselector.slot, align 4
  %lpad.val = insertvalue { ptr, i32 } poison, ptr %exn, 0
  %lpad.val3 = insertvalue { ptr, i32 } %lpad.val, i32 %sel, 1
  resume { ptr, i32 } %lpad.val3
}