; Function Attrs: mustprogress uwtable
define void @_ZNK8QuantLib18FdmSquareRootFwdOp14toMatrixDecompEv(ptr dead_on_unwind noalias writable sret(%"class.std::vector.16") align 8 %agg.result, ptr nocapture noundef nonnull readonly align 8 dereferenceable(80) %this) unnamed_addr #3 align 2 personality ptr @__gxx_personality_v0 {
entry:
  %ref.tmp = alloca %"class.boost::numeric::ublas::compressed_matrix", align 8
  %ref.tmp2 = alloca %"class.std::allocator.18", align 1
  call void @llvm.lifetime.start.p0(i64 112, ptr nonnull %ref.tmp) #25
  %mapX_ = getelementptr inbounds nuw i8, ptr %this, i64 48
  %0 = load ptr, ptr %mapX_, align 8, !tbaa !114
  %cmp.not.i = icmp eq ptr %0, null
  br i1 %cmp.not.i, label %cond.false.i, label %_ZNK5boost10shared_ptrIN8QuantLib21ModTripleBandLinearOpEEptEv.exit, !prof !30

cond.false.i:                                     ; preds = %entry
  tail call void @_ZN5boost16assertion_failedEPKcS1_S1_l(ptr noundef nonnull @.str.9, ptr noundef nonnull @__PRETTY_FUNCTION__._ZNK5boost10shared_ptrIN8QuantLib21ModTripleBandLinearOpEEptEv, ptr noundef nonnull @.str.10, i64 noundef 784)
  %.pre.i = load ptr, ptr %mapX_, align 8, !tbaa !114
  br label %_ZNK5boost10shared_ptrIN8QuantLib21ModTripleBandLinearOpEEptEv.exit

_ZNK5boost10shared_ptrIN8QuantLib21ModTripleBandLinearOpEEptEv.exit: ; preds = %entry, %cond.false.i
  %1 = phi ptr [ %0, %entry ], [ %.pre.i, %cond.false.i ]
  %vtable = load ptr, ptr %1, align 8, !tbaa !3
  %vfn = getelementptr inbounds i8, ptr %vtable, i64 24
  %2 = load ptr, ptr %vfn, align 8
  call void %2(ptr dead_on_unwind nonnull writable sret(%"class.boost::numeric::ublas::compressed_matrix") align 8 %ref.tmp, ptr noundef nonnull align 8 dereferenceable(80) %1)
  call void @llvm.lifetime.start.p0(i64 1, ptr nonnull %ref.tmp2) #25
  invoke void @_ZNSt6vectorIN5boost7numeric5ublas17compressed_matrixIdNS2_15basic_row_majorImlEELm0ENS2_15unbounded_arrayImSaImEEENS6_IdSaIdEEEEESaISB_EEC2EmRKSB_RKSC_(ptr noundef nonnull align 8 dereferenceable(24) %agg.result, i64 noundef 1, ptr noundef nonnull align 8 dereferenceable(112) %ref.tmp, ptr noundef nonnull align 1 dereferenceable(1) %ref.tmp2)
          to label %invoke.cont unwind label %lpad

invoke.cont:                                      ; preds = %_ZNK5boost10shared_ptrIN8QuantLib21ModTripleBandLinearOpEEptEv.exit
  call void @llvm.lifetime.end.p0(i64 1, ptr nonnull %ref.tmp2) #25
  %size_.i.i = getelementptr inbounds nuw i8, ptr %ref.tmp, i64 96
  %3 = load i64, ptr %size_.i.i, align 8, !tbaa !151
  %tobool.not.i.i = icmp eq i64 %3, 0
  br i1 %tobool.not.i.i, label %_ZN5boost7numeric5ublas15unbounded_arrayIdSaIdEED2Ev.exit.i, label %if.then.i.i

if.then.i.i:                                      ; preds = %invoke.cont
  %data_.i.i = getelementptr inbounds nuw i8, ptr %ref.tmp, i64 104
  %4 = load ptr, ptr %data_.i.i, align 8, !tbaa !154
  %mul.i.i.i = shl i64 %3, 3
  call void @_ZdlPvm(ptr noundef %4, i64 noundef %mul.i.i.i) #28
  br label %_ZN5boost7numeric5ublas15unbounded_arrayIdSaIdEED2Ev.exit.i

_ZN5boost7numeric5ublas15unbounded_arrayIdSaIdEED2Ev.exit.i: ; preds = %if.then.i.i, %invoke.cont
  %size_.i1.i = getelementptr inbounds nuw i8, ptr %ref.tmp, i64 72
  %5 = load i64, ptr %size_.i1.i, align 8, !tbaa !155
  %tobool.not.i2.i = icmp eq i64 %5, 0
  br i1 %tobool.not.i2.i, label %_ZN5boost7numeric5ublas15unbounded_arrayImSaImEED2Ev.exit.i, label %if.then.i3.i

if.then.i3.i:                                     ; preds = %_ZN5boost7numeric5ublas15unbounded_arrayIdSaIdEED2Ev.exit.i
  %data_.i4.i = getelementptr inbounds nuw i8, ptr %ref.tmp, i64 80
  %6 = load ptr, ptr %data_.i4.i, align 8, !tbaa !158
  %mul.i.i5.i = shl i64 %5, 3
  call void @_ZdlPvm(ptr noundef %6, i64 noundef %mul.i.i5.i) #28
  br label %_ZN5boost7numeric5ublas15unbounded_arrayImSaImEED2Ev.exit.i

_ZN5boost7numeric5ublas15unbounded_arrayImSaImEED2Ev.exit.i: ; preds = %if.then.i3.i, %_ZN5boost7numeric5ublas15unbounded_arrayIdSaIdEED2Ev.exit.i
  %size_.i6.i = getelementptr inbounds nuw i8, ptr %ref.tmp, i64 48
  %7 = load i64, ptr %size_.i6.i, align 8, !tbaa !155
  %tobool.not.i7.i = icmp eq i64 %7, 0
  br i1 %tobool.not.i7.i, label %_ZN5boost7numeric5ublas17compressed_matrixIdNS1_15basic_row_majorImlEELm0ENS1_15unbounded_arrayImSaImEEENS5_IdSaIdEEEED2Ev.exit, label %if.then.i8.i

if.then.i8.i:                                     ; preds = %_ZN5boost7numeric5ublas15unbounded_arrayImSaImEED2Ev.exit.i
  %data_.i9.i = getelementptr inbounds nuw i8, ptr %ref.tmp, i64 56
  %8 = load ptr, ptr %data_.i9.i, align 8, !tbaa !158
  %mul.i.i10.i = shl i64 %7, 3
  call void @_ZdlPvm(ptr noundef %8, i64 noundef %mul.i.i10.i) #28
  br label %_ZN5boost7numeric5ublas17compressed_matrixIdNS1_15basic_row_majorImlEELm0ENS1_15unbounded_arrayImSaImEEENS5_IdSaIdEEEED2Ev.exit

_ZN5boost7numeric5ublas17compressed_matrixIdNS1_15basic_row_majorImlEELm0ENS1_15unbounded_arrayImSaImEEENS5_IdSaIdEEEED2Ev.exit: ; preds = %_ZN5boost7numeric5ublas15unbounded_arrayImSaImEED2Ev.exit.i, %if.then.i8.i
  call void @llvm.lifetime.end.p0(i64 112, ptr nonnull %ref.tmp) #25
  ret void

lpad:                                             ; preds = %_ZNK5boost10shared_ptrIN8QuantLib21ModTripleBandLinearOpEEptEv.exit
  %9 = landingpad { ptr, i32 }
          cleanup
  call void @llvm.lifetime.end.p0(i64 1, ptr nonnull %ref.tmp2) #25
  call void @_ZN5boost7numeric5ublas17compressed_matrixIdNS1_15basic_row_majorImlEELm0ENS1_15unbounded_arrayImSaImEEENS5_IdSaIdEEEED2Ev(ptr noundef nonnull align 8 dereferenceable(112) %ref.tmp) #25
  call void @llvm.lifetime.end.p0(i64 112, ptr nonnull %ref.tmp) #25
  resume { ptr, i32 } %9
}